target datalayout = "e-m:e-p270:32:32-p271:32:32-p272:64:64-i64:64-i128:128-f80:128-n8:16:32:64-S128"
target triple = "x86_64-pc-linux-gnu"

%struct.Vec_Int_t_ = type { i32, i32, ptr }
%struct.Gia_Man_t_ = type { ptr, ptr, i32, i32, i32, i32, ptr, ptr, i32, i32, i32, ptr, ptr, %struct.Vec_Int_t_, %struct.Vec_Int_t_, i32, i32, i32, %struct.Vec_Int_t_, ptr, ptr, ptr, i32, i32, i32, i32, ptr, ptr, ptr, ptr, ptr, i32, i32, ptr, i32, ptr, ptr, ptr, ptr, ptr, ptr, ptr, ptr, ptr, ptr, ptr, ptr, ptr, ptr, ptr, ptr, ptr, ptr, %struct.Vec_Int_t_, %struct.Vec_Int_t_, ptr, ptr, ptr, ptr, ptr, ptr, ptr, ptr, ptr, ptr, ptr, ptr, ptr, ptr, ptr, ptr, ptr, ptr, ptr, ptr, ptr, i32, float, float, ptr, ptr, i32, ptr, ptr, ptr, ptr, ptr, ptr, ptr, ptr, ptr, ptr, ptr, ptr, ptr, ptr, ptr, i64, i64, ptr, ptr, i32, i32, i32, i32, i32, i32, i32, i32, i32, i32, i32, i32, ptr, ptr, ptr, ptr, ptr, ptr, ptr, ptr, i32, i32, i32, ptr, i32, i32, ptr, ptr, ptr, ptr, ptr, ptr, i32, i32, ptr, %struct.Vec_Int_t_, %struct.Vec_Int_t_, %struct.Vec_Int_t_, ptr, ptr, ptr, i32, i32, i32, i32, ptr, ptr, ptr, ptr, ptr }
%struct.Cnf_Dat_t_ = type { ptr, i32, i32, i32, ptr, ptr, ptr, ptr, ptr, ptr }
%struct.Qbf_Man_t_ = type { ptr, i32, i32, i32, i32, ptr, ptr, ptr, ptr, ptr, ptr, i64, i64 }

; Function Attrs: inlinehint nounwind uwtable
define internal i32 @Vec_IntSize(ptr noundef %0) #2 {
  %2 = alloca ptr, align 8
  store ptr %0, ptr %2, align 8, !tbaa !10
  %3 = load ptr, ptr %2, align 8, !tbaa !10
  %4 = getelementptr inbounds nuw %struct.Vec_Int_t_, ptr %3, i32 0, i32 1
  %5 = load i32, ptr %4, align 4, !tbaa !14
  ret i32 %5
}

; Function Attrs: nounwind uwtable
define void @Cnf_SpecialDataLift(ptr noundef %0, i32 noundef %1, i32 noundef %2, i32 noundef %3) #0 {
  %5 = alloca ptr, align 8
  %6 = alloca i32, align 4
  %7 = alloca i32, align 4
  %8 = alloca i32, align 4
  %9 = alloca i32, align 4
  %10 = alloca i32, align 4
  store ptr %0, ptr %5, align 8, !tbaa !80
  store i32 %1, ptr %6, align 4, !tbaa !8
  store i32 %2, ptr %7, align 4, !tbaa !8
  store i32 %3, ptr %8, align 4, !tbaa !8
  call void @llvm.lifetime.start.p0(i64 4, ptr %9) #14
  call void @llvm.lifetime.start.p0(i64 4, ptr %10) #14
  store i32 0, ptr %9, align 4, !tbaa !8
  br label %11

11:                                               ; preds = %62, %4
  %12 = load i32, ptr %9, align 4, !tbaa !8
  %13 = load ptr, ptr %5, align 8, !tbaa !80
  %14 = getelementptr inbounds nuw %struct.Cnf_Dat_t_, ptr %13, i32 0, i32 2
  %15 = load i32, ptr %14, align 4, !tbaa !130
  %16 = icmp slt i32 %12, %15
  br i1 %16, label %17, label %65

17:                                               ; preds = %11
  %18 = load ptr, ptr %5, align 8, !tbaa !80
  %19 = getelementptr inbounds nuw %struct.Cnf_Dat_t_, ptr %18, i32 0, i32 4
  %20 = load ptr, ptr %19, align 8, !tbaa !131
  %21 = getelementptr inbounds ptr, ptr %20, i64 0
  %22 = load ptr, ptr %21, align 8, !tbaa !22
  %23 = load i32, ptr %9, align 4, !tbaa !8
  %24 = sext i32 %23 to i64
  %25 = getelementptr inbounds i32, ptr %22, i64 %24
  %26 = load i32, ptr %25, align 4, !tbaa !8
  %27 = sdiv i32 %26, 2
  store i32 %27, ptr %10, align 4, !tbaa !8
  %28 = load i32, ptr %10, align 4, !tbaa !8
  %29 = load i32, ptr %7, align 4, !tbaa !8
  %30 = icmp slt i32 %28, %29
  br i1 %30, label %35, label %31

31:                                               ; preds = %17
  %32 = load i32, ptr %10, align 4, !tbaa !8
  %33 = load i32, ptr %8, align 4, !tbaa !8
  %34 = icmp sge i32 %32, %33
  br i1 %34, label %35, label %48

35:                                               ; preds = %31, %17
  %36 = load i32, ptr %6, align 4, !tbaa !8
  %37 = mul nsw i32 2, %36
  %38 = load ptr, ptr %5, align 8, !tbaa !80
  %39 = getelementptr inbounds nuw %struct.Cnf_Dat_t_, ptr %38, i32 0, i32 4
  %40 = load ptr, ptr %39, align 8, !tbaa !131
  %41 = getelementptr inbounds ptr, ptr %40, i64 0
  %42 = load ptr, ptr %41, align 8, !tbaa !22
  %43 = load i32, ptr %9, align 4, !tbaa !8
  %44 = sext i32 %43 to i64
  %45 = getelementptr inbounds i32, ptr %42, i64 %44
  %46 = load i32, ptr %45, align 4, !tbaa !8
  %47 = add nsw i32 %46, %37
  store i32 %47, ptr %45, align 4, !tbaa !8
  br label %61

48:                                               ; preds = %31
  %49 = load i32, ptr %7, align 4, !tbaa !8
  %50 = mul nsw i32 2, %49
  %51 = load ptr, ptr %5, align 8, !tbaa !80
  %52 = getelementptr inbounds nuw %struct.Cnf_Dat_t_, ptr %51, i32 0, i32 4
  %53 = load ptr, ptr %52, align 8, !tbaa !131
  %54 = getelementptr inbounds ptr, ptr %53, i64 0
  %55 = load ptr, ptr %54, align 8, !tbaa !22
  %56 = load i32, ptr %9, align 4, !tbaa !8
  %57 = sext i32 %56 to i64
  %58 = getelementptr inbounds i32, ptr %55, i64 %57
  %59 = load i32, ptr %58, align 4, !tbaa !8
  %60 = sub nsw i32 %59, %50
  store i32 %60, ptr %58, align 4, !tbaa !8
  br label %61

61:                                               ; preds = %48, %35
  br label %62

62:                                               ; preds = %61
  %63 = load i32, ptr %9, align 4, !tbaa !8
  %64 = add nsw i32 %63, 1
  store i32 %64, ptr %9, align 4, !tbaa !8
  br label %11, !llvm.loop !132

65:                                               ; preds = %11
  call void @llvm.lifetime.end.p0(i64 4, ptr %10) #14
  call void @llvm.lifetime.end.p0(i64 4, ptr %9) #14
  ret void
}

; Function Attrs: inlinehint nounwind uwtable
define internal i32 @Gia_ManPiNum(ptr noundef %0) #2 {
  %2 = alloca ptr, align 8
  store ptr %0, ptr %2, align 8, !tbaa !20
  %3 = load ptr, ptr %2, align 8, !tbaa !20
  %4 = getelementptr inbounds nuw %struct.Gia_Man_t_, ptr %3, i32 0, i32 11
  %5 = load ptr, ptr %4, align 8, !tbaa !46
  %6 = call i32 @Vec_IntSize(ptr noundef %5)
  %7 = load ptr, ptr %2, align 8, !tbaa !20
  %8 = getelementptr inbounds nuw %struct.Gia_Man_t_, ptr %7, i32 0, i32 2
  %9 = load i32, ptr %8, align 8, !tbaa !53
  %10 = sub nsw i32 %6, %9
  ret i32 %10
}

; Function Attrs: nounwind uwtable
define i32 @Gia_QbfAddCofactorG(ptr noundef %0, ptr noundef %1) #0 {
  %3 = alloca i32, align 4
  %4 = alloca ptr, align 8
  %5 = alloca ptr, align 8
  %6 = alloca ptr, align 8
  %7 = alloca i32, align 4
  %8 = alloca i32, align 4
  %9 = alloca i32, align 4
  store ptr %0, ptr %4, align 8, !tbaa !104
  store ptr %1, ptr %5, align 8, !tbaa !20
  call void @llvm.lifetime.start.p0(i64 8, ptr %6) #14
  %10 = load ptr, ptr %5, align 8, !tbaa !20
  %11 = call ptr @Mf_ManGenerateCnf(ptr noundef %10, i32 noundef 8, i32 noundef 0, i32 noundef 1, i32 noundef 0, i32 noundef 0)
  store ptr %11, ptr %6, align 8, !tbaa !80
  call void @llvm.lifetime.start.p0(i64 4, ptr %7) #14
  call void @llvm.lifetime.start.p0(i64 4, ptr %8) #14
  %12 = load ptr, ptr %6, align 8, !tbaa !80
  %13 = getelementptr inbounds nuw %struct.Cnf_Dat_t_, ptr %12, i32 0, i32 1
  %14 = load i32, ptr %13, align 8, !tbaa !84
  %15 = load ptr, ptr %5, align 8, !tbaa !20
  %16 = call i32 @Gia_ManPiNum(ptr noundef %15)
  %17 = sub nsw i32 %14, %16
  store i32 %17, ptr %8, align 4, !tbaa !8
  %18 = load ptr, ptr %6, align 8, !tbaa !80
  %19 = getelementptr inbounds nuw %struct.Cnf_Dat_t_, ptr %18, i32 0, i32 0
  store ptr null, ptr %19, align 8, !tbaa !133
  %20 = load ptr, ptr %6, align 8, !tbaa !80
  %21 = load ptr, ptr %4, align 8, !tbaa !104
  %22 = getelementptr inbounds nuw %struct.Qbf_Man_t_, ptr %21, i32 0, i32 7
  %23 = load ptr, ptr %22, align 8, !tbaa !115
  %24 = call i32 @bmcg_sat_solver_varnum(ptr noundef %23)
  %25 = load i32, ptr %8, align 4, !tbaa !8
  %26 = load i32, ptr %8, align 4, !tbaa !8
  %27 = load ptr, ptr %4, align 8, !tbaa !104
  %28 = getelementptr inbounds nuw %struct.Qbf_Man_t_, ptr %27, i32 0, i32 0
  %29 = load ptr, ptr %28, align 8, !tbaa !108
  %30 = call i32 @Gia_ManPiNum(ptr noundef %29)
  %31 = add nsw i32 %26, %30
  call void @Cnf_SpecialDataLift(ptr noundef %20, i32 noundef %24, i32 noundef %25, i32 noundef %31)
  store i32 0, ptr %7, align 4, !tbaa !8
  br label %32

32:                                               ; preds = %74, %2
  %33 = load i32, ptr %7, align 4, !tbaa !8
  %34 = load ptr, ptr %6, align 8, !tbaa !80
  %35 = getelementptr inbounds nuw %struct.Cnf_Dat_t_, ptr %34, i32 0, i32 3
  %36 = load i32, ptr %35, align 8, !tbaa !134
  %37 = icmp slt i32 %33, %36
  br i1 %37, label %38, label %77

38:                                               ; preds = %32
  %39 = load ptr, ptr %4, align 8, !tbaa !104
  %40 = getelementptr inbounds nuw %struct.Qbf_Man_t_, ptr %39, i32 0, i32 7
  %41 = load ptr, ptr %40, align 8, !tbaa !115
  %42 = load ptr, ptr %6, align 8, !tbaa !80
  %43 = getelementptr inbounds nuw %struct.Cnf_Dat_t_, ptr %42, i32 0, i32 4
  %44 = load ptr, ptr %43, align 8, !tbaa !131
  %45 = load i32, ptr %7, align 4, !tbaa !8
  %46 = sext i32 %45 to i64
  %47 = getelementptr inbounds ptr, ptr %44, i64 %46
  %48 = load ptr, ptr %47, align 8, !tbaa !22
  %49 = load ptr, ptr %6, align 8, !tbaa !80
  %50 = getelementptr inbounds nuw %struct.Cnf_Dat_t_, ptr %49, i32 0, i32 4
  %51 = load ptr, ptr %50, align 8, !tbaa !131
  %52 = load i32, ptr %7, align 4, !tbaa !8
  %53 = add nsw i32 %52, 1
  %54 = sext i32 %53 to i64
  %55 = getelementptr inbounds ptr, ptr %51, i64 %54
  %56 = load ptr, ptr %55, align 8, !tbaa !22
  %57 = load ptr, ptr %6, align 8, !tbaa !80
  %58 = getelementptr inbounds nuw %struct.Cnf_Dat_t_, ptr %57, i32 0, i32 4
  %59 = load ptr, ptr %58, align 8, !tbaa !131
  %60 = load i32, ptr %7, align 4, !tbaa !8
  %61 = sext i32 %60 to i64
  %62 = getelementptr inbounds ptr, ptr %59, i64 %61
  %63 = load ptr, ptr %62, align 8, !tbaa !22
  %64 = ptrtoint ptr %56 to i64
  %65 = ptrtoint ptr %63 to i64
  %66 = sub i64 %64, %65
  %67 = sdiv exact i64 %66, 4
  %68 = trunc i64 %67 to i32
  %69 = call i32 @bmcg_sat_solver_addclause(ptr noundef %41, ptr noundef %48, i32 noundef %68)
  %70 = icmp ne i32 %69, 0
  br i1 %70, label %73, label %71

71:                                               ; preds = %38
  %72 = load ptr, ptr %6, align 8, !tbaa !80
  call void @Cnf_DataFree(ptr noundef %72)
  store i32 0, ptr %3, align 4
  store i32 1, ptr %9, align 4
  br label %79

73:                                               ; preds = %38
  br label %74

74:                                               ; preds = %73
  %75 = load i32, ptr %7, align 4, !tbaa !8
  %76 = add nsw i32 %75, 1
  store i32 %76, ptr %7, align 4, !tbaa !8
  br label %32, !llvm.loop !137

77:                                               ; preds = %32
  %78 = load ptr, ptr %6, align 8, !tbaa !80
  call void @Cnf_DataFree(ptr noundef %78)
  store i32 1, ptr %3, align 4
  store i32 1, ptr %9, align 4
  br label %79

79:                                               ; preds = %77, %71
  call void @llvm.lifetime.end.p0(i64 4, ptr %8) #14
  call void @llvm.lifetime.end.p0(i64 4, ptr %7) #14
  call void @llvm.lifetime.end.p0(i64 8, ptr %6) #14
  %80 = load i32, ptr %3, align 4
  ret i32 %80
}